#include <math.h>
#include <stdio.h>
#include <stdlib.h>
#include <string.h>

int main(int argc, char* argv[])
{
	int i,j,s,m,n,k;
	char str1[257],str2[257],str3[257];
	scanf("%s",str1);
	scanf("%s",str2);
	scanf("%s",str3);
	m=strlen(str1);
	n=strlen(str2);
	k=strlen(str3);
	for(i=0;i<=m-n;i++)
	{
		s=0;
		for(j=i;j<i+n;j++)
		{
			if(str2[j-i]==str1[j])
				s++;
		}
		if(s==n)
		{
			for(j=0;j<i;j++)
			{
				printf("%c",str1[j]);
			}
			for(j=0;j<k;j++)
			{
				printf("%c",str3[j]);
			}
			for(j=i+n;j<m;j++)
			{
				printf("%c",str1[j]);
			}
			break;
		}
	}
    if(s!=n)
		printf("%s",str1);
	return 0;
}
