; ModuleID = '7/1094.c'
source_filename = "7/1094.c"
target datalayout = "e-m:e-p270:32:32-p271:32:32-p272:64:64-i64:64-f80:128-n8:16:32:64-S128"
target triple = "x86_64-pc-linux-gnu"

@.str = private unnamed_addr constant [3 x i8] c"%s\00", align 1
@.str.1 = private unnamed_addr constant [3 x i8] c"%c\00", align 1

; Function Attrs: noinline nounwind uwtable
define dso_local i32 @main(i32 %0, i8** %1) #0 {
  %3 = alloca i32, align 4
  %4 = alloca i32, align 4
  %5 = alloca i8**, align 8
  %6 = alloca i32, align 4
  %7 = alloca i32, align 4
  %8 = alloca i32, align 4
  %9 = alloca i32, align 4
  %10 = alloca i32, align 4
  %11 = alloca i32, align 4
  %12 = alloca [257 x i8], align 16
  %13 = alloca [257 x i8], align 16
  %14 = alloca [257 x i8], align 16
  store i32 0, i32* %3, align 4
  store i32 %0, i32* %4, align 4
  store i8** %1, i8*** %5, align 8
  %15 = getelementptr inbounds [257 x i8], [257 x i8]* %12, i64 0, i64 0
  %16 = call i32 (i8*, ...) @__isoc99_scanf(i8* getelementptr inbounds ([3 x i8], [3 x i8]* @.str, i64 0, i64 0), i8* %15)
  %17 = getelementptr inbounds [257 x i8], [257 x i8]* %13, i64 0, i64 0
  %18 = call i32 (i8*, ...) @__isoc99_scanf(i8* getelementptr inbounds ([3 x i8], [3 x i8]* @.str, i64 0, i64 0), i8* %17)
  %19 = getelementptr inbounds [257 x i8], [257 x i8]* %14, i64 0, i64 0
  %20 = call i32 (i8*, ...) @__isoc99_scanf(i8* getelementptr inbounds ([3 x i8], [3 x i8]* @.str, i64 0, i64 0), i8* %19)
  %21 = getelementptr inbounds [257 x i8], [257 x i8]* %12, i64 0, i64 0
  %22 = call i64 @strlen(i8* %21) #3
  %23 = trunc i64 %22 to i32
  store i32 %23, i32* %9, align 4
  %24 = getelementptr inbounds [257 x i8], [257 x i8]* %13, i64 0, i64 0
  %25 = call i64 @strlen(i8* %24) #3
  %26 = trunc i64 %25 to i32
  store i32 %26, i32* %10, align 4
  %27 = getelementptr inbounds [257 x i8], [257 x i8]* %14, i64 0, i64 0
  %28 = call i64 @strlen(i8* %27) #3
  %29 = trunc i64 %28 to i32
  store i32 %29, i32* %11, align 4
  store i32 0, i32* %6, align 4
  br label %30

30:                                               ; preds = %119, %2
  %31 = load i32, i32* %6, align 4
  %32 = load i32, i32* %9, align 4
  %33 = load i32, i32* %10, align 4
  %34 = sub nsw i32 %32, %33
  %35 = icmp sle i32 %31, %34
  br i1 %35, label %36, label %122

36:                                               ; preds = %30
  store i32 0, i32* %8, align 4
  %37 = load i32, i32* %6, align 4
  store i32 %37, i32* %7, align 4
  br label %38

38:                                               ; preds = %62, %36
  %39 = load i32, i32* %7, align 4
  %40 = load i32, i32* %6, align 4
  %41 = load i32, i32* %10, align 4
  %42 = add nsw i32 %40, %41
  %43 = icmp slt i32 %39, %42
  br i1 %43, label %44, label %65

44:                                               ; preds = %38
  %45 = load i32, i32* %7, align 4
  %46 = load i32, i32* %6, align 4
  %47 = sub nsw i32 %45, %46
  %48 = sext i32 %47 to i64
  %49 = getelementptr inbounds [257 x i8], [257 x i8]* %13, i64 0, i64 %48
  %50 = load i8, i8* %49, align 1
  %51 = sext i8 %50 to i32
  %52 = load i32, i32* %7, align 4
  %53 = sext i32 %52 to i64
  %54 = getelementptr inbounds [257 x i8], [257 x i8]* %12, i64 0, i64 %53
  %55 = load i8, i8* %54, align 1
  %56 = sext i8 %55 to i32
  %57 = icmp eq i32 %51, %56
  br i1 %57, label %58, label %61

58:                                               ; preds = %44
  %59 = load i32, i32* %8, align 4
  %60 = add nsw i32 %59, 1
  store i32 %60, i32* %8, align 4
  br label %61

61:                                               ; preds = %58, %44
  br label %62

62:                                               ; preds = %61
  %63 = load i32, i32* %7, align 4
  %64 = add nsw i32 %63, 1
  store i32 %64, i32* %7, align 4
  br label %38

65:                                               ; preds = %38
  %66 = load i32, i32* %8, align 4
  %67 = load i32, i32* %10, align 4
  %68 = icmp eq i32 %66, %67
  br i1 %68, label %69, label %118

69:                                               ; preds = %65
  store i32 0, i32* %7, align 4
  br label %70

70:                                               ; preds = %81, %69
  %71 = load i32, i32* %7, align 4
  %72 = load i32, i32* %6, align 4
  %73 = icmp slt i32 %71, %72
  br i1 %73, label %74, label %84

74:                                               ; preds = %70
  %75 = load i32, i32* %7, align 4
  %76 = sext i32 %75 to i64
  %77 = getelementptr inbounds [257 x i8], [257 x i8]* %12, i64 0, i64 %76
  %78 = load i8, i8* %77, align 1
  %79 = sext i8 %78 to i32
  %80 = call i32 (i8*, ...) @printf(i8* getelementptr inbounds ([3 x i8], [3 x i8]* @.str.1, i64 0, i64 0), i32 %79)
  br label %81

81:                                               ; preds = %74
  %82 = load i32, i32* %7, align 4
  %83 = add nsw i32 %82, 1
  store i32 %83, i32* %7, align 4
  br label %70

84:                                               ; preds = %70
  store i32 0, i32* %7, align 4
  br label %85

85:                                               ; preds = %96, %84
  %86 = load i32, i32* %7, align 4
  %87 = load i32, i32* %11, align 4
  %88 = icmp slt i32 %86, %87
  br i1 %88, label %89, label %99

89:                                               ; preds = %85
  %90 = load i32, i32* %7, align 4
  %91 = sext i32 %90 to i64
  %92 = getelementptr inbounds [257 x i8], [257 x i8]* %14, i64 0, i64 %91
  %93 = load i8, i8* %92, align 1
  %94 = sext i8 %93 to i32
  %95 = call i32 (i8*, ...) @printf(i8* getelementptr inbounds ([3 x i8], [3 x i8]* @.str.1, i64 0, i64 0), i32 %94)
  br label %96

96:                                               ; preds = %89
  %97 = load i32, i32* %7, align 4
  %98 = add nsw i32 %97, 1
  store i32 %98, i32* %7, align 4
  br label %85

99:                                               ; preds = %85
  %100 = load i32, i32* %6, align 4
  %101 = load i32, i32* %10, align 4
  %102 = add nsw i32 %100, %101
  store i32 %102, i32* %7, align 4
  br label %103

103:                                              ; preds = %114, %99
  %104 = load i32, i32* %7, align 4
  %105 = load i32, i32* %9, align 4
  %106 = icmp slt i32 %104, %105
  br i1 %106, label %107, label %117

107:                                              ; preds = %103
  %108 = load i32, i32* %7, align 4
  %109 = sext i32 %108 to i64
  %110 = getelementptr inbounds [257 x i8], [257 x i8]* %12, i64 0, i64 %109
  %111 = load i8, i8* %110, align 1
  %112 = sext i8 %111 to i32
  %113 = call i32 (i8*, ...) @printf(i8* getelementptr inbounds ([3 x i8], [3 x i8]* @.str.1, i64 0, i64 0), i32 %112)
  br label %114

114:                                              ; preds = %107
  %115 = load i32, i32* %7, align 4
  %116 = add nsw i32 %115, 1
  store i32 %116, i32* %7, align 4
  br label %103

117:                                              ; preds = %103
  br label %122

118:                                              ; preds = %65
  br label %119

119:                                              ; preds = %118
  %120 = load i32, i32* %6, align 4
  %121 = add nsw i32 %120, 1
  store i32 %121, i32* %6, align 4
  br label %30

122:                                              ; preds = %117, %30
  %123 = load i32, i32* %8, align 4
  %124 = load i32, i32* %10, align 4
  %125 = icmp ne i32 %123, %124
  br i1 %125, label %126, label %129

126:                                              ; preds = %122
  %127 = getelementptr inbounds [257 x i8], [257 x i8]* %12, i64 0, i64 0
  %128 = call i32 (i8*, ...) @printf(i8* getelementptr inbounds ([3 x i8], [3 x i8]* @.str, i64 0, i64 0), i8* %127)
  br label %129

129:                                              ; preds = %126, %122
  ret i32 0
}

declare dso_local i32 @__isoc99_scanf(i8*, ...) #1

; Function Attrs: nounwind readonly
declare dso_local i64 @strlen(i8*) #2

declare dso_local i32 @printf(i8*, ...) #1


!llvm.module.flags = !{!0}
!llvm.ident = !{!1}

!0 = !{i32 1, !"wchar_size", i32 4}
!1 = !{!"clang version 10.0.0-4ubuntu1 "}
